target datalayout = "e-m:e-p270:32:32-p271:32:32-p272:64:64-i64:64-i128:128-f80:128-n8:16:32:64-S128"
target triple = "x86_64-pc-linux-gnu"

%"class.OpenSubdiv::v3_6_0::Bfr::VertexDescriptor" = type { i8, i16, float, %"class.OpenSubdiv::v3_6_0::Vtr::internal::StackBuffer", %"class.OpenSubdiv::v3_6_0::Vtr::internal::StackBuffer.0" }
%"class.OpenSubdiv::v3_6_0::Vtr::internal::StackBuffer" = type { ptr, i32, i32, [64 x i8], ptr }
%"class.OpenSubdiv::v3_6_0::Vtr::internal::StackBuffer.0" = type { ptr, i32, i32, [32 x i8], ptr }

; Function Attrs: mustprogress nounwind uwtable
define linkonce_odr noundef i32 @_ZN10OpenSubdiv6v3_6_03Bfr6Limits10MaxValenceEv() #1 comdat align 2 {
  ret i32 65535
}

; Function Attrs: mustprogress uwtable
define noundef zeroext i1 @_ZN10OpenSubdiv6v3_6_03Bfr16VertexDescriptor10InitializeEi(ptr noundef nonnull align 8 dereferenceable(152) %0, i32 noundef %1) #0 align 2 {
  %3 = alloca ptr, align 8
  %4 = alloca i32, align 4
  store ptr %0, ptr %3, align 8
  store i32 %1, ptr %4, align 4
  %5 = load ptr, ptr %3, align 8
  %6 = load i32, ptr %4, align 4
  %7 = icmp sgt i32 %6, 0
  br i1 %7, label %8, label %12

8:                                                ; preds = %2
  %9 = load i32, ptr %4, align 4
  %10 = call noundef i32 @_ZN10OpenSubdiv6v3_6_03Bfr6Limits10MaxValenceEv()
  %11 = icmp sle i32 %9, %10
  br label %12

12:                                               ; preds = %8, %2
  %13 = phi i1 [ false, %2 ], [ %11, %8 ]
  %14 = zext i1 %13 to i16
  %15 = trunc i16 %14 to i8
  %16 = load i8, ptr %5, align 8
  %17 = and i8 %15, 1
  %18 = and i8 %16, -2
  %19 = or i8 %18, %17
  store i8 %19, ptr %5, align 8
  %20 = load i8, ptr %5, align 8
  %21 = and i8 %20, 1
  %22 = zext i8 %21 to i16
  %23 = icmp ne i16 %22, 0
  br i1 %23, label %24, label %28

24:                                               ; preds = %12
  %25 = load i32, ptr %4, align 4
  %26 = trunc i32 %25 to i16
  %27 = sext i16 %26 to i32
  br label %29

28:                                               ; preds = %12
  br label %29

29:                                               ; preds = %28, %24
  %30 = phi i32 [ %27, %24 ], [ 0, %28 ]
  %31 = trunc i32 %30 to i16
  %32 = getelementptr inbounds nuw %"class.OpenSubdiv::v3_6_0::Bfr::VertexDescriptor", ptr %5, i32 0, i32 1
  store i16 %31, ptr %32, align 2
  %33 = getelementptr inbounds nuw %"class.OpenSubdiv::v3_6_0::Bfr::VertexDescriptor", ptr %5, i32 0, i32 2
  store float 0.000000e+00, ptr %33, align 4
  %34 = load i8, ptr %5, align 8
  %35 = and i8 %34, -9
  %36 = or i8 %35, 0
  store i8 %36, ptr %5, align 8
  %37 = load i8, ptr %5, align 8
  %38 = and i8 %37, -17
  %39 = or i8 %38, 0
  store i8 %39, ptr %5, align 8
  %40 = load i8, ptr %5, align 8
  %41 = and i8 %40, -33
  %42 = or i8 %41, 0
  store i8 %42, ptr %5, align 8
  %43 = load i8, ptr %5, align 8
  %44 = and i8 %43, -65
  %45 = or i8 %44, 0
  store i8 %45, ptr %5, align 8
  %46 = load i8, ptr %5, align 8
  %47 = and i8 %46, 1
  %48 = zext i8 %47 to i16
  %49 = trunc i16 %48 to i8
  %50 = load i8, ptr %5, align 8
  %51 = and i8 %49, 1
  %52 = shl i8 %51, 1
  %53 = and i8 %50, -3
  %54 = or i8 %53, %52
  store i8 %54, ptr %5, align 8
  %55 = load i8, ptr %5, align 8
  %56 = and i8 %55, -5
  %57 = or i8 %56, 0
  store i8 %57, ptr %5, align 8
  %58 = load i8, ptr %5, align 8
  %59 = lshr i8 %58, 1
  %60 = and i8 %59, 1
  %61 = zext i8 %60 to i16
  %62 = icmp ne i16 %61, 0
  ret i1 %62
}