; Function Attrs: mustprogress nofree norecurse nosync nounwind willreturn memory(argmem: readwrite) uwtable
define noundef zeroext i1 @_ZN10OpenSubdiv6v3_6_03Bfr16VertexDescriptor10InitializeEi(ptr nocapture noundef nonnull align 8 dereferenceable(152) %0, i32 noundef %1) local_unnamed_addr #0 align 2 {
  %3 = icmp sgt i32 %1, 0
  br i1 %3, label %6, label %.thread

.thread:                                          ; preds = %2
  %4 = load i8, ptr %0, align 8
  %5 = and i8 %4, -2
  br label %12

6:                                                ; preds = %2
  %7 = icmp ult i32 %1, 65536
  %8 = zext i1 %7 to i8
  %9 = load i8, ptr %0, align 8
  %10 = and i8 %9, -2
  %11 = or disjoint i8 %10, %8
  %spec.select4 = tail call i32 @llvm.umin.i32(i32 %1, i32 65536)
  %spec.select = trunc i32 %spec.select4 to i16
  br label %12

12:                                               ; preds = %6, %.thread
  %.sink = phi i8 [ %11, %6 ], [ %5, %.thread ]
  %13 = phi i16 [ %spec.select, %6 ], [ 0, %.thread ]
  %14 = getelementptr inbounds nuw i8, ptr %0, i64 2
  store i16 %13, ptr %14, align 2
  %15 = getelementptr inbounds nuw i8, ptr %0, i64 4
  store float 0.000000e+00, ptr %15, align 4
  %16 = shl i8 %.sink, 1
  %17 = and i8 %16, 2
  %18 = and i8 %.sink, -127
  %19 = or disjoint i8 %17, %18
  store i8 %19, ptr %0, align 8
  %20 = and i8 %.sink, 1
  %21 = icmp ne i8 %20, 0
  ret i1 %21
}